; ModuleID = '24/453.c'
source_filename = "24/453.c"
target datalayout = "e-m:e-p270:32:32-p271:32:32-p272:64:64-i64:64-f80:128-n8:16:32:64-S128"
target triple = "x86_64-pc-linux-gnu"

; Function Attrs: noinline nounwind uwtable
define dso_local void @main() #0 {
  %1 = alloca [500 x i8], align 16
  %2 = alloca i8, align 1
  %3 = alloca i8*, align 8
  %4 = alloca i8*, align 8
  %5 = alloca i8*, align 8
  %6 = alloca i32, align 4
  %7 = alloca i32, align 4
  %8 = alloca i32, align 4
  %9 = alloca i32, align 4
  %10 = alloca i32, align 4
  store i32 0, i32* %7, align 4
  store i32 0, i32* %8, align 4
  store i32 100, i32* %9, align 4
  %11 = getelementptr inbounds [500 x i8], [500 x i8]* %1, i64 0, i64 0
  %12 = call i32 (i8*, ...) bitcast (i32 (...)* @gets to i32 (i8*, ...)*)(i8* %11)
  store i32 0, i32* %6, align 4
  br label %13

13:                                               ; preds = %68, %0
  %14 = load i32, i32* %6, align 4
  %15 = sext i32 %14 to i64
  %16 = getelementptr inbounds [500 x i8], [500 x i8]* %1, i64 0, i64 %15
  %17 = load i8, i8* %16, align 1
  store i8 %17, i8* %2, align 1
  %18 = sext i8 %17 to i32
  %19 = icmp ne i32 %18, 0
  br i1 %19, label %20, label %71

20:                                               ; preds = %13
  %21 = load i8, i8* %2, align 1
  %22 = sext i8 %21 to i32
  %23 = icmp ne i32 %22, 32
  br i1 %23, label %24, label %36

24:                                               ; preds = %20
  %25 = load i32, i32* %7, align 4
  %26 = icmp eq i32 %25, 0
  br i1 %26, label %27, label %32

27:                                               ; preds = %24
  store i32 1, i32* %10, align 4
  %28 = getelementptr inbounds [500 x i8], [500 x i8]* %1, i64 0, i64 0
  %29 = load i32, i32* %6, align 4
  %30 = sext i32 %29 to i64
  %31 = getelementptr inbounds i8, i8* %28, i64 %30
  store i8* %31, i8** %5, align 8
  store i32 1, i32* %7, align 4
  br label %35

32:                                               ; preds = %24
  %33 = load i32, i32* %10, align 4
  %34 = add nsw i32 %33, 1
  store i32 %34, i32* %10, align 4
  br label %35

35:                                               ; preds = %32, %27
  br label %36

36:                                               ; preds = %35, %20
  %37 = load i8, i8* %2, align 1
  %38 = sext i8 %37 to i32
  %39 = icmp eq i32 %38, 32
  br i1 %39, label %48, label %40

40:                                               ; preds = %36
  %41 = load i32, i32* %6, align 4
  %42 = add nsw i32 %41, 1
  %43 = sext i32 %42 to i64
  %44 = getelementptr inbounds [500 x i8], [500 x i8]* %1, i64 0, i64 %43
  %45 = load i8, i8* %44, align 1
  %46 = sext i8 %45 to i32
  %47 = icmp eq i32 %46, 0
  br i1 %47, label %48, label %67

48:                                               ; preds = %40, %36
  %49 = load i32, i32* %7, align 4
  %50 = icmp eq i32 %49, 1
  br i1 %50, label %51, label %66

51:                                               ; preds = %48
  %52 = load i32, i32* %10, align 4
  %53 = load i32, i32* %8, align 4
  %54 = icmp sgt i32 %52, %53
  br i1 %54, label %55, label %58

55:                                               ; preds = %51
  %56 = load i8*, i8** %5, align 8
  store i8* %56, i8** %3, align 8
  %57 = load i32, i32* %10, align 4
  store i32 %57, i32* %8, align 4
  br label %58

58:                                               ; preds = %55, %51
  %59 = load i32, i32* %10, align 4
  %60 = load i32, i32* %9, align 4
  %61 = icmp slt i32 %59, %60
  br i1 %61, label %62, label %65

62:                                               ; preds = %58
  %63 = load i8*, i8** %5, align 8
  store i8* %63, i8** %4, align 8
  %64 = load i32, i32* %10, align 4
  store i32 %64, i32* %9, align 4
  br label %65

65:                                               ; preds = %62, %58
  br label %66

66:                                               ; preds = %65, %48
  store i32 0, i32* %7, align 4
  br label %67

67:                                               ; preds = %66, %40
  br label %68

68:                                               ; preds = %67
  %69 = load i32, i32* %6, align 4
  %70 = add nsw i32 %69, 1
  store i32 %70, i32* %6, align 4
  br label %13

71:                                               ; preds = %13
  br label %72

72:                                               ; preds = %84, %71
  %73 = load i8*, i8** %3, align 8
  %74 = load i8, i8* %73, align 1
  %75 = sext i8 %74 to i32
  %76 = icmp ne i32 %75, 32
  br i1 %76, label %77, label %82

77:                                               ; preds = %72
  %78 = load i8*, i8** %3, align 8
  %79 = load i8, i8* %78, align 1
  %80 = sext i8 %79 to i32
  %81 = icmp ne i32 %80, 0
  br label %82

82:                                               ; preds = %77, %72
  %83 = phi i1 [ false, %72 ], [ %81, %77 ]
  br i1 %83, label %84, label %90

84:                                               ; preds = %82
  %85 = load i8*, i8** %3, align 8
  %86 = getelementptr inbounds i8, i8* %85, i32 1
  store i8* %86, i8** %3, align 8
  %87 = load i8, i8* %85, align 1
  %88 = sext i8 %87 to i32
  %89 = call i32 @putchar(i32 %88)
  br label %72

90:                                               ; preds = %82
  %91 = call i32 @putchar(i32 10)
  br label %92

92:                                               ; preds = %104, %90
  %93 = load i8*, i8** %4, align 8
  %94 = load i8, i8* %93, align 1
  %95 = sext i8 %94 to i32
  %96 = icmp ne i32 %95, 32
  br i1 %96, label %97, label %102

97:                                               ; preds = %92
  %98 = load i8*, i8** %4, align 8
  %99 = load i8, i8* %98, align 1
  %100 = sext i8 %99 to i32
  %101 = icmp ne i32 %100, 0
  br label %102

102:                                              ; preds = %97, %92
  %103 = phi i1 [ false, %92 ], [ %101, %97 ]
  br i1 %103, label %104, label %110

104:                                              ; preds = %102
  %105 = load i8*, i8** %4, align 8
  %106 = getelementptr inbounds i8, i8* %105, i32 1
  store i8* %106, i8** %4, align 8
  %107 = load i8, i8* %105, align 1
  %108 = sext i8 %107 to i32
  %109 = call i32 @putchar(i32 %108)
  br label %92

110:                                              ; preds = %102
  ret void
}

declare dso_local i32 @gets(...) #1

declare dso_local i32 @putchar(i32) #1


!llvm.module.flags = !{!0}
!llvm.ident = !{!1}

!0 = !{i32 1, !"wchar_size", i32 4}
!1 = !{!"clang version 10.0.0-4ubuntu1 "}
